target datalayout = "e-m:e-p270:32:32-p271:32:32-p272:64:64-i64:64-i128:128-f80:128-n8:16:32:64-S128"
target triple = "x86_64-pc-linux-gnu"

%struct.FormData_pg_class = type { i32, %struct.nameData, i32, i32, i32, i32, i32, i32, i32, i32, float, i32, i32, i8, i8, i8, i8, i16, i16, i8, i8, i8, i8, i8, i8, i8, i8, i32, i32, i32 }
%struct.nameData = type { [64 x i8] }
%struct.HeapTupleData = type { i32, %struct.ItemPointerData, i32, ptr }
%struct.ItemPointerData = type { %struct.BlockIdData, i16 }
%struct.BlockIdData = type { i16, i16 }
%struct.HeapTupleHeaderData = type { %union.anon, %struct.ItemPointerData, i16, i16, i8, [0 x i8] }
%union.anon = type { %struct.HeapTupleFields }
%struct.HeapTupleFields = type { i32, i32, %union.anon.0 }
%union.anon.0 = type { i32 }
%struct.FunctionCallInfoBaseData = type { ptr, ptr, ptr, i32, i8, i16, [0 x %struct.NullableDatum] }
%struct.NullableDatum = type { i64, i8 }

@row_security = external global i8, align 1
@.str = private unnamed_addr constant [68 x i8] c"query would be affected by row-level security policy for table \22%s\22\00", align 1
@.str.1 = private unnamed_addr constant [90 x i8] c"To disable the policy for the table's owner, use ALTER TABLE NO FORCE ROW LEVEL SECURITY.\00", align 1
@.str.2 = private unnamed_addr constant [6 x i8] c"rls.c\00", align 1
@__func__.check_enable_rls = private unnamed_addr constant [17 x i8] c"check_enable_rls\00", align 1

; Function Attrs: nounwind uwtable
define dso_local i32 @check_enable_rls(i32 noundef %0, i32 noundef %1, i1 noundef zeroext %2) #0 {
  %4 = alloca i32, align 4
  %5 = alloca i32, align 4
  %6 = alloca i32, align 4
  %7 = alloca i8, align 1
  %8 = alloca i32, align 4
  %9 = alloca ptr, align 8
  %10 = alloca ptr, align 8
  %11 = alloca i8, align 1
  %12 = alloca i8, align 1
  %13 = alloca i8, align 1
  %14 = alloca i32, align 4
  store i32 %0, ptr %5, align 4
  store i32 %1, ptr %6, align 4
  %15 = zext i1 %2 to i8
  store i8 %15, ptr %7, align 1
  call void @llvm.lifetime.start.p0(i64 4, ptr %8) #5
  %16 = load i32, ptr %6, align 4
  %17 = icmp ne i32 %16, 0
  br i1 %17, label %18, label %20

18:                                               ; preds = %3
  %19 = load i32, ptr %6, align 4
  br label %22

20:                                               ; preds = %3
  %21 = call i32 @GetUserId()
  br label %22

22:                                               ; preds = %20, %18
  %23 = phi i32 [ %19, %18 ], [ %21, %20 ]
  store i32 %23, ptr %8, align 4
  call void @llvm.lifetime.start.p0(i64 8, ptr %9) #5
  call void @llvm.lifetime.start.p0(i64 8, ptr %10) #5
  call void @llvm.lifetime.start.p0(i64 1, ptr %11) #5
  call void @llvm.lifetime.start.p0(i64 1, ptr %12) #5
  call void @llvm.lifetime.start.p0(i64 1, ptr %13) #5
  %24 = load i32, ptr %5, align 4
  %25 = icmp ult i32 %24, 16384
  br i1 %25, label %26, label %27

26:                                               ; preds = %22
  store i32 0, ptr %4, align 4
  store i32 1, ptr %14, align 4
  br label %96

27:                                               ; preds = %22
  %28 = load i32, ptr %5, align 4
  %29 = call i64 @ObjectIdGetDatum(i32 noundef %28)
  %30 = call ptr @SearchSysCache1(i32 noundef 57, i64 noundef %29)
  store ptr %30, ptr %9, align 8
  %31 = load ptr, ptr %9, align 8
  %32 = icmp ne ptr %31, null
  br i1 %32, label %34, label %33

33:                                               ; preds = %27
  store i32 0, ptr %4, align 4
  store i32 1, ptr %14, align 4
  br label %96

34:                                               ; preds = %27
  %35 = load ptr, ptr %9, align 8
  %36 = call ptr @GETSTRUCT(ptr noundef %35)
  store ptr %36, ptr %10, align 8
  %37 = load ptr, ptr %10, align 8
  %38 = getelementptr inbounds nuw %struct.FormData_pg_class, ptr %37, i32 0, i32 22
  %39 = load i8, ptr %38, align 1, !range !4, !noundef !5
  %40 = trunc i8 %39 to i1
  %41 = zext i1 %40 to i8
  store i8 %41, ptr %11, align 1
  %42 = load ptr, ptr %10, align 8
  %43 = getelementptr inbounds nuw %struct.FormData_pg_class, ptr %42, i32 0, i32 23
  %44 = load i8, ptr %43, align 4, !range !4, !noundef !5
  %45 = trunc i8 %44 to i1
  %46 = zext i1 %45 to i8
  store i8 %46, ptr %12, align 1
  %47 = load ptr, ptr %9, align 8
  call void @ReleaseSysCache(ptr noundef %47)
  %48 = load i8, ptr %11, align 1, !range !4, !noundef !5
  %49 = trunc i8 %48 to i1
  br i1 %49, label %51, label %50

50:                                               ; preds = %34
  store i32 0, ptr %4, align 4
  store i32 1, ptr %14, align 4
  br label %96

51:                                               ; preds = %34
  %52 = load i32, ptr %8, align 4
  %53 = call zeroext i1 @has_bypassrls_privilege(i32 noundef %52)
  br i1 %53, label %54, label %55

54:                                               ; preds = %51
  store i32 1, ptr %4, align 4
  store i32 1, ptr %14, align 4
  br label %96

55:                                               ; preds = %51
  %56 = load i32, ptr %5, align 4
  %57 = load i32, ptr %8, align 4
  %58 = call zeroext i1 @object_ownercheck(i32 noundef 1259, i32 noundef %56, i32 noundef %57)
  %59 = zext i1 %58 to i8
  store i8 %59, ptr %13, align 1
  %60 = load i8, ptr %13, align 1, !range !4, !noundef !5
  %61 = trunc i8 %60 to i1
  br i1 %61, label %62, label %69

62:                                               ; preds = %55
  %63 = load i8, ptr %12, align 1, !range !4, !noundef !5
  %64 = trunc i8 %63 to i1
  br i1 %64, label %65, label %67

65:                                               ; preds = %62
  %66 = call zeroext i1 @InNoForceRLSOperation()
  br i1 %66, label %67, label %68

67:                                               ; preds = %65, %62
  store i32 1, ptr %4, align 4
  store i32 1, ptr %14, align 4
  br label %96

68:                                               ; preds = %65
  br label %69

69:                                               ; preds = %68, %55
  %70 = load i8, ptr @row_security, align 1, !range !4, !noundef !5
  %71 = trunc i8 %70 to i1
  br i1 %71, label %95, label %72

72:                                               ; preds = %69
  %73 = load i8, ptr %7, align 1, !range !4, !noundef !5
  %74 = trunc i8 %73 to i1
  br i1 %74, label %95, label %75

75:                                               ; preds = %72
  br label %76

76:                                               ; preds = %75
  br i1 true, label %77, label %79

77:                                               ; preds = %76
  %78 = call zeroext i1 @errstart_cold(i32 noundef 21, ptr noundef null) #6
  br i1 %78, label %81, label %92

79:                                               ; preds = %76
  %80 = call zeroext i1 @errstart(i32 noundef 21, ptr noundef null)
  br i1 %80, label %81, label %92

81:                                               ; preds = %79, %77
  %82 = call i32 @errcode(i32 noundef 16797828)
  %83 = load i32, ptr %5, align 4
  %84 = call ptr @get_rel_name(i32 noundef %83)
  %85 = call i32 (ptr, ...) @errmsg(ptr noundef @.str, ptr noundef %84)
  %86 = load i8, ptr %13, align 1, !range !4, !noundef !5
  %87 = trunc i8 %86 to i1
  br i1 %87, label %88, label %90

88:                                               ; preds = %81
  %89 = call i32 (ptr, ...) @errhint(ptr noundef @.str.1)
  br label %91

90:                                               ; preds = %81
  br label %91

91:                                               ; preds = %90, %88
  call void @errfinish(ptr noundef @.str.2, i32 noundef 129, ptr noundef @__func__.check_enable_rls)
  br label %92

92:                                               ; preds = %91, %79, %77
  unreachable

93:                                               ; No predecessors!
  br label %94

94:                                               ; preds = %93
  br label %95

95:                                               ; preds = %94, %72, %69
  store i32 2, ptr %4, align 4
  store i32 1, ptr %14, align 4
  br label %96

96:                                               ; preds = %95, %67, %54, %50, %33, %26
  call void @llvm.lifetime.end.p0(i64 1, ptr %13) #5
  call void @llvm.lifetime.end.p0(i64 1, ptr %12) #5
  call void @llvm.lifetime.end.p0(i64 1, ptr %11) #5
  call void @llvm.lifetime.end.p0(i64 8, ptr %10) #5
  call void @llvm.lifetime.end.p0(i64 8, ptr %9) #5
  call void @llvm.lifetime.end.p0(i64 4, ptr %8) #5
  %97 = load i32, ptr %4, align 4
  ret i32 %97
}

; Function Attrs: nocallback nofree nosync nounwind willreturn memory(argmem: readwrite)
declare void @llvm.lifetime.start.p0(i64 immarg, ptr captures(none)) #1

declare i32 @GetUserId() #2

declare ptr @SearchSysCache1(i32 noundef, i64 noundef) #2

; Function Attrs: inlinehint nounwind uwtable
define internal i64 @ObjectIdGetDatum(i32 noundef %0) #3 {
  %2 = alloca i32, align 4
  store i32 %0, ptr %2, align 4
  %3 = load i32, ptr %2, align 4
  %4 = zext i32 %3 to i64
  ret i64 %4
}

; Function Attrs: inlinehint nounwind uwtable
define internal ptr @GETSTRUCT(ptr noundef %0) #3 {
  %2 = alloca ptr, align 8
  store ptr %0, ptr %2, align 8
  %3 = load ptr, ptr %2, align 8
  %4 = getelementptr inbounds nuw %struct.HeapTupleData, ptr %3, i32 0, i32 3
  %5 = load ptr, ptr %4, align 8
  %6 = load ptr, ptr %2, align 8
  %7 = getelementptr inbounds nuw %struct.HeapTupleData, ptr %6, i32 0, i32 3
  %8 = load ptr, ptr %7, align 8
  %9 = getelementptr inbounds nuw %struct.HeapTupleHeaderData, ptr %8, i32 0, i32 4
  %10 = load i8, ptr %9, align 2
  %11 = zext i8 %10 to i32
  %12 = sext i32 %11 to i64
  %13 = getelementptr inbounds i8, ptr %5, i64 %12
  ret ptr %13
}

declare void @ReleaseSysCache(ptr noundef) #2

declare zeroext i1 @has_bypassrls_privilege(i32 noundef) #2

declare zeroext i1 @object_ownercheck(i32 noundef, i32 noundef, i32 noundef) #2

declare zeroext i1 @InNoForceRLSOperation() #2

; Function Attrs: cold
declare zeroext i1 @errstart_cold(i32 noundef, ptr noundef) #4

declare zeroext i1 @errstart(i32 noundef, ptr noundef) #2

declare i32 @errcode(i32 noundef) #2

declare i32 @errmsg(ptr noundef, ...) #2

declare ptr @get_rel_name(i32 noundef) #2

declare i32 @errhint(ptr noundef, ...) #2

declare void @errfinish(ptr noundef, i32 noundef, ptr noundef) #2

; Function Attrs: nocallback nofree nosync nounwind willreturn memory(argmem: readwrite)
declare void @llvm.lifetime.end.p0(i64 immarg, ptr captures(none)) #1

; Function Attrs: nounwind uwtable
define dso_local i64 @row_security_active(ptr noundef %0) #0 {
  %2 = alloca ptr, align 8
  %3 = alloca i32, align 4
  %4 = alloca i32, align 4
  store ptr %0, ptr %2, align 8
  call void @llvm.lifetime.start.p0(i64 4, ptr %3) #5
  %5 = load ptr, ptr %2, align 8
  %6 = getelementptr inbounds nuw %struct.FunctionCallInfoBaseData, ptr %5, i32 0, i32 6
  %7 = getelementptr inbounds [0 x %struct.NullableDatum], ptr %6, i64 0, i64 0
  %8 = getelementptr inbounds nuw %struct.NullableDatum, ptr %7, i32 0, i32 0
  %9 = load i64, ptr %8, align 8
  %10 = call i32 @DatumGetObjectId(i64 noundef %9)
  store i32 %10, ptr %3, align 4
  call void @llvm.lifetime.start.p0(i64 4, ptr %4) #5
  %11 = load i32, ptr %3, align 4
  %12 = call i32 @check_enable_rls(i32 noundef %11, i32 noundef 0, i1 noundef zeroext true)
  store i32 %12, ptr %4, align 4
  %13 = load i32, ptr %4, align 4
  %14 = icmp eq i32 %13, 2
  %15 = call i64 @BoolGetDatum(i1 noundef zeroext %14)
  call void @llvm.lifetime.end.p0(i64 4, ptr %4) #5
  call void @llvm.lifetime.end.p0(i64 4, ptr %3) #5
  ret i64 %15
}

; Function Attrs: inlinehint nounwind uwtable
define internal i32 @DatumGetObjectId(i64 noundef %0) #3 {
  %2 = alloca i64, align 8
  store i64 %0, ptr %2, align 8
  %3 = load i64, ptr %2, align 8
  %4 = trunc i64 %3 to i32
  ret i32 %4
}

; Function Attrs: inlinehint nounwind uwtable
define internal i64 @BoolGetDatum(i1 noundef zeroext %0) #3 {
  %2 = alloca i8, align 1
  %3 = zext i1 %0 to i8
  store i8 %3, ptr %2, align 1
  %4 = load i8, ptr %2, align 1, !range !4, !noundef !5
  %5 = trunc i8 %4 to i1
  %6 = select i1 %5, i32 1, i32 0
  %7 = sext i32 %6 to i64
  ret i64 %7
}

; Function Attrs: nounwind uwtable
define dso_local i64 @row_security_active_name(ptr noundef %0) #0 {
  %2 = alloca ptr, align 8
  %3 = alloca ptr, align 8
  %4 = alloca ptr, align 8
  %5 = alloca i32, align 4
  %6 = alloca i32, align 4
  store ptr %0, ptr %2, align 8
  call void @llvm.lifetime.start.p0(i64 8, ptr %3) #5
  %7 = load ptr, ptr %2, align 8
  %8 = getelementptr inbounds nuw %struct.FunctionCallInfoBaseData, ptr %7, i32 0, i32 6
  %9 = getelementptr inbounds [0 x %struct.NullableDatum], ptr %8, i64 0, i64 0
  %10 = getelementptr inbounds nuw %struct.NullableDatum, ptr %9, i32 0, i32 0
  %11 = load i64, ptr %10, align 8
  %12 = call ptr @DatumGetPointer(i64 noundef %11)
  %13 = call ptr @pg_detoast_datum_packed(ptr noundef %12)
  store ptr %13, ptr %3, align 8
  call void @llvm.lifetime.start.p0(i64 8, ptr %4) #5
  call void @llvm.lifetime.start.p0(i64 4, ptr %5) #5
  call void @llvm.lifetime.start.p0(i64 4, ptr %6) #5
  %14 = load ptr, ptr %3, align 8
  %15 = call ptr @textToQualifiedNameList(ptr noundef %14)
  %16 = call ptr @makeRangeVarFromNameList(ptr noundef %15)
  store ptr %16, ptr %4, align 8
  %17 = load ptr, ptr %4, align 8
  %18 = call i32 @RangeVarGetRelidExtended(ptr noundef %17, i32 noundef 0, i32 noundef 0, ptr noundef null, ptr noundef null)
  store i32 %18, ptr %5, align 4
  %19 = load i32, ptr %5, align 4
  %20 = call i32 @check_enable_rls(i32 noundef %19, i32 noundef 0, i1 noundef zeroext true)
  store i32 %20, ptr %6, align 4
  %21 = load i32, ptr %6, align 4
  %22 = icmp eq i32 %21, 2
  %23 = call i64 @BoolGetDatum(i1 noundef zeroext %22)
  call void @llvm.lifetime.end.p0(i64 4, ptr %6) #5
  call void @llvm.lifetime.end.p0(i64 4, ptr %5) #5
  call void @llvm.lifetime.end.p0(i64 8, ptr %4) #5
  call void @llvm.lifetime.end.p0(i64 8, ptr %3) #5
  ret i64 %23
}

declare ptr @pg_detoast_datum_packed(ptr noundef) #2

; Function Attrs: inlinehint nounwind uwtable
define internal ptr @DatumGetPointer(i64 noundef %0) #3 {
  %2 = alloca i64, align 8
  store i64 %0, ptr %2, align 8
  %3 = load i64, ptr %2, align 8
  %4 = inttoptr i64 %3 to ptr
  ret ptr %4
}

declare ptr @makeRangeVarFromNameList(ptr noundef) #2

declare ptr @textToQualifiedNameList(ptr noundef) #2

declare i32 @RangeVarGetRelidExtended(ptr noundef, i32 noundef, i32 noundef, ptr noundef, ptr noundef) #2


!llvm.module.flags = !{!0, !1, !2, !3}

!0 = !{i32 1, !"wchar_size", i32 4}
!1 = !{i32 8, !"PIC Level", i32 2}
!2 = !{i32 7, !"PIE Level", i32 2}
!3 = !{i32 7, !"uwtable", i32 2}
!4 = !{i8 0, i8 2}
!5 = !{}
